; Function Attrs: mustprogress uwtable
define void @_ZN3gmx19SelectionCollection15parseFromStringERKNSt7__cxx1112basic_stringIcSt11char_traitsIcESaIcEEE(ptr dead_on_unwind noalias nocapture writable sret(%"class.std::vector.65") align 8 %0, ptr nocapture noundef nonnull readonly align 8 dereferenceable(8) %1, ptr noundef nonnull align 8 dereferenceable(32) %2) local_unnamed_addr #0 align 2 personality ptr @__gxx_personality_v0 {
  %4 = alloca ptr, align 8
  %5 = alloca %"class.std::__cxx11::basic_string", align 8
  %6 = load ptr, ptr %1, align 8
  %7 = getelementptr inbounds i8, ptr %6, i64 212
  %8 = load i8, ptr %7, align 4
  %9 = trunc i8 %8 to i1
  %10 = getelementptr inbounds i8, ptr %6, i64 216
  %11 = load ptr, ptr %10, align 8
  call void @_Z19_gmx_sel_init_lexerPPvP23gmx_ana_selcollection_tPN3gmx10TextWriterEibP19gmx_ana_indexgrps_t(ptr noundef nonnull %4, ptr noundef %6, ptr noundef null, i32 noundef -1, i1 noundef zeroext %9, ptr noundef %11)
  %12 = load ptr, ptr %4, align 8
  %13 = call noundef ptr @_ZNKSt7__cxx1112basic_stringIcSt11char_traitsIcESaIcEE5c_strEv(ptr noundef nonnull align 8 dereferenceable(32) %2) #22
  call void @_Z26_gmx_sel_set_lex_input_strPvPKc(ptr noundef %12, ptr noundef %13)
  %14 = load ptr, ptr %4, align 8
  call void @_ZNSt7__cxx1112basic_stringIcSt11char_traitsIcESaIcEEC1Ev(ptr noundef nonnull align 8 dereferenceable(32) %5) #22
  invoke fastcc void @_ZN3gmx12_GLOBAL__N_19runParserEPvPNS_15TextInputStreamEbiRKNSt7__cxx1112basic_stringIcSt11char_traitsIcESaIcEEE(ptr dead_on_unwind noalias writable align 8 %0, ptr noundef %14, ptr noundef null, i1 noundef zeroext false, i32 noundef -1, ptr noundef nonnull align 8 dereferenceable(32) %5)
          to label %15 unwind label %16

15:                                               ; preds = %3
  call void @_ZNSt7__cxx1112basic_stringIcSt11char_traitsIcESaIcEED1Ev(ptr noundef nonnull align 8 dereferenceable(32) %5) #22
  ret void

16:                                               ; preds = %3
  %17 = landingpad { ptr, i32 }
          cleanup
  call void @_ZNSt7__cxx1112basic_stringIcSt11char_traitsIcESaIcEED1Ev(ptr noundef nonnull align 8 dereferenceable(32) %5) #22
  resume { ptr, i32 } %17
}